; Function Attrs: nounwind uwtable
define hidden void @Curl_ftp_parselist_data_free(ptr noundef captures(none) %0) local_unnamed_addr #0 {
  %2 = load ptr, ptr %0, align 8, !tbaa !20
  %.not = icmp eq ptr %2, null
  br i1 %.not, label %6, label %3

3:                                                ; preds = %1
  %4 = getelementptr inbounds nuw i8, ptr %2, i64 16
  %5 = load ptr, ptr %4, align 8, !tbaa !22
  tail call void @Curl_fileinfo_cleanup(ptr noundef %5) #8
  br label %6

6:                                                ; preds = %3, %1
  %7 = load ptr, ptr @Curl_cfree, align 8, !tbaa !17
  tail call void %7(ptr noundef %2) #8
  store ptr null, ptr %0, align 8, !tbaa !20
  ret void
}